; ModuleID = '58/1121.c'
source_filename = "58/1121.c"
target datalayout = "e-m:e-p270:32:32-p271:32:32-p272:64:64-i64:64-f80:128-n8:16:32:64-S128"
target triple = "x86_64-pc-linux-gnu"

@.str = private unnamed_addr constant [3 x i8] c"%d\00", align 1
@.str.1 = private unnamed_addr constant [3 x i8] c"1\0A\00", align 1
@.str.2 = private unnamed_addr constant [3 x i8] c"0\0A\00", align 1

; Function Attrs: noinline nounwind uwtable
define dso_local i32 @main() #0 {
  %1 = alloca i32, align 4
  %2 = alloca [900 x i8], align 16
  %3 = alloca i32, align 4
  %4 = alloca i32, align 4
  %5 = alloca i32, align 4
  store i32 0, i32* %1, align 4
  %6 = call i32 (i8*, ...) @__isoc99_scanf(i8* getelementptr inbounds ([3 x i8], [3 x i8]* @.str, i64 0, i64 0), i32* %4)
  %7 = getelementptr inbounds [900 x i8], [900 x i8]* %2, i64 0, i64 0
  %8 = call i32 (i8*, ...) bitcast (i32 (...)* @gets to i32 (i8*, ...)*)(i8* %7)
  store i32 0, i32* %3, align 4
  br label %9

9:                                                ; preds = %130, %0
  %10 = load i32, i32* %3, align 4
  %11 = load i32, i32* %4, align 4
  %12 = icmp slt i32 %10, %11
  br i1 %12, label %13, label %133

13:                                               ; preds = %9
  %14 = getelementptr inbounds [900 x i8], [900 x i8]* %2, i64 0, i64 0
  %15 = call i32 (i8*, ...) bitcast (i32 (...)* @gets to i32 (i8*, ...)*)(i8* %14)
  store i32 0, i32* %5, align 4
  %16 = load i32, i32* %5, align 4
  %17 = sext i32 %16 to i64
  %18 = getelementptr inbounds [900 x i8], [900 x i8]* %2, i64 0, i64 %17
  %19 = load i8, i8* %18, align 1
  %20 = sext i8 %19 to i32
  %21 = icmp eq i32 %20, 95
  br i1 %21, label %50, label %22

22:                                               ; preds = %13
  %23 = load i32, i32* %5, align 4
  %24 = sext i32 %23 to i64
  %25 = getelementptr inbounds [900 x i8], [900 x i8]* %2, i64 0, i64 %24
  %26 = load i8, i8* %25, align 1
  %27 = sext i8 %26 to i32
  %28 = icmp sge i32 %27, 97
  br i1 %28, label %29, label %36

29:                                               ; preds = %22
  %30 = load i32, i32* %5, align 4
  %31 = sext i32 %30 to i64
  %32 = getelementptr inbounds [900 x i8], [900 x i8]* %2, i64 0, i64 %31
  %33 = load i8, i8* %32, align 1
  %34 = sext i8 %33 to i32
  %35 = icmp sle i32 %34, 122
  br i1 %35, label %50, label %36

36:                                               ; preds = %29, %22
  %37 = load i32, i32* %5, align 4
  %38 = sext i32 %37 to i64
  %39 = getelementptr inbounds [900 x i8], [900 x i8]* %2, i64 0, i64 %38
  %40 = load i8, i8* %39, align 1
  %41 = sext i8 %40 to i32
  %42 = icmp sge i32 %41, 65
  br i1 %42, label %43, label %127

43:                                               ; preds = %36
  %44 = load i32, i32* %5, align 4
  %45 = sext i32 %44 to i64
  %46 = getelementptr inbounds [900 x i8], [900 x i8]* %2, i64 0, i64 %45
  %47 = load i8, i8* %46, align 1
  %48 = sext i8 %47 to i32
  %49 = icmp sle i32 %48, 90
  br i1 %49, label %50, label %127

50:                                               ; preds = %43, %29, %13
  %51 = getelementptr inbounds [900 x i8], [900 x i8]* %2, i64 0, i64 0
  %52 = call i64 @strlen(i8* %51) #3
  %53 = icmp ugt i64 %52, 0
  br i1 %53, label %54, label %116

54:                                               ; preds = %50
  store i32 1, i32* %5, align 4
  br label %55

55:                                               ; preds = %112, %54
  %56 = load i32, i32* %5, align 4
  %57 = sext i32 %56 to i64
  %58 = getelementptr inbounds [900 x i8], [900 x i8]* %2, i64 0, i64 0
  %59 = call i64 @strlen(i8* %58) #3
  %60 = icmp ult i64 %57, %59
  br i1 %60, label %61, label %115

61:                                               ; preds = %55
  %62 = load i32, i32* %5, align 4
  %63 = sext i32 %62 to i64
  %64 = getelementptr inbounds [900 x i8], [900 x i8]* %2, i64 0, i64 %63
  %65 = load i8, i8* %64, align 1
  %66 = sext i8 %65 to i32
  %67 = icmp eq i32 %66, 95
  br i1 %67, label %110, label %68

68:                                               ; preds = %61
  %69 = load i32, i32* %5, align 4
  %70 = sext i32 %69 to i64
  %71 = getelementptr inbounds [900 x i8], [900 x i8]* %2, i64 0, i64 %70
  %72 = load i8, i8* %71, align 1
  %73 = sext i8 %72 to i32
  %74 = icmp sge i32 %73, 97
  br i1 %74, label %75, label %82

75:                                               ; preds = %68
  %76 = load i32, i32* %5, align 4
  %77 = sext i32 %76 to i64
  %78 = getelementptr inbounds [900 x i8], [900 x i8]* %2, i64 0, i64 %77
  %79 = load i8, i8* %78, align 1
  %80 = sext i8 %79 to i32
  %81 = icmp sle i32 %80, 122
  br i1 %81, label %110, label %82

82:                                               ; preds = %75, %68
  %83 = load i32, i32* %5, align 4
  %84 = sext i32 %83 to i64
  %85 = getelementptr inbounds [900 x i8], [900 x i8]* %2, i64 0, i64 %84
  %86 = load i8, i8* %85, align 1
  %87 = sext i8 %86 to i32
  %88 = icmp sge i32 %87, 65
  br i1 %88, label %89, label %96

89:                                               ; preds = %82
  %90 = load i32, i32* %5, align 4
  %91 = sext i32 %90 to i64
  %92 = getelementptr inbounds [900 x i8], [900 x i8]* %2, i64 0, i64 %91
  %93 = load i8, i8* %92, align 1
  %94 = sext i8 %93 to i32
  %95 = icmp sle i32 %94, 90
  br i1 %95, label %110, label %96

96:                                               ; preds = %89, %82
  %97 = load i32, i32* %5, align 4
  %98 = sext i32 %97 to i64
  %99 = getelementptr inbounds [900 x i8], [900 x i8]* %2, i64 0, i64 %98
  %100 = load i8, i8* %99, align 1
  %101 = sext i8 %100 to i32
  %102 = icmp sge i32 %101, 48
  br i1 %102, label %103, label %111

103:                                              ; preds = %96
  %104 = load i32, i32* %5, align 4
  %105 = sext i32 %104 to i64
  %106 = getelementptr inbounds [900 x i8], [900 x i8]* %2, i64 0, i64 %105
  %107 = load i8, i8* %106, align 1
  %108 = sext i8 %107 to i32
  %109 = icmp sle i32 %108, 57
  br i1 %109, label %110, label %111

110:                                              ; preds = %103, %89, %75, %61
  br label %112

111:                                              ; preds = %103, %96
  br label %115

112:                                              ; preds = %110
  %113 = load i32, i32* %5, align 4
  %114 = add nsw i32 %113, 1
  store i32 %114, i32* %5, align 4
  br label %55

115:                                              ; preds = %111, %55
  br label %116

116:                                              ; preds = %115, %50
  %117 = load i32, i32* %5, align 4
  %118 = sext i32 %117 to i64
  %119 = getelementptr inbounds [900 x i8], [900 x i8]* %2, i64 0, i64 0
  %120 = call i64 @strlen(i8* %119) #3
  %121 = icmp eq i64 %118, %120
  br i1 %121, label %122, label %124

122:                                              ; preds = %116
  %123 = call i32 (i8*, ...) @printf(i8* getelementptr inbounds ([3 x i8], [3 x i8]* @.str.1, i64 0, i64 0))
  br label %126

124:                                              ; preds = %116
  %125 = call i32 (i8*, ...) @printf(i8* getelementptr inbounds ([3 x i8], [3 x i8]* @.str.2, i64 0, i64 0))
  br label %126

126:                                              ; preds = %124, %122
  br label %129

127:                                              ; preds = %43, %36
  %128 = call i32 (i8*, ...) @printf(i8* getelementptr inbounds ([3 x i8], [3 x i8]* @.str.2, i64 0, i64 0))
  br label %129

129:                                              ; preds = %127, %126
  br label %130

130:                                              ; preds = %129
  %131 = load i32, i32* %3, align 4
  %132 = add nsw i32 %131, 1
  store i32 %132, i32* %3, align 4
  br label %9

133:                                              ; preds = %9
  %134 = load i32, i32* %1, align 4
  ret i32 %134
}

declare dso_local i32 @__isoc99_scanf(i8*, ...) #1

declare dso_local i32 @gets(...) #1

; Function Attrs: nounwind readonly
declare dso_local i64 @strlen(i8*) #2

declare dso_local i32 @printf(i8*, ...) #1


!llvm.module.flags = !{!0}
!llvm.ident = !{!1}

!0 = !{i32 1, !"wchar_size", i32 4}
!1 = !{!"clang version 10.0.0-4ubuntu1 "}
